target datalayout = "e-m:e-p270:32:32-p271:32:32-p272:64:64-i64:64-i128:128-f80:128-n8:16:32:64-S128"
target triple = "x86_64-pc-linux-gnu"

%struct.FunctionCallInfoBaseData = type { ptr, ptr, ptr, i32, i8, i16, [0 x %struct.NullableDatum] }
%struct.NullableDatum = type { i64, i8 }
%struct.PgStat_IO = type { i64, [17 x %struct.PgStat_BktypeIO] }
%struct.PgStat_BktypeIO = type { [3 x [5 x [8 x i64]]], [3 x [5 x [8 x i64]]], [3 x [5 x [8 x i64]]] }

; Function Attrs: nounwind uwtable
define dso_local i64 @pg_stat_get_io(ptr noundef %0) #0 {
  %2 = alloca ptr, align 8
  %3 = alloca ptr, align 8
  %4 = alloca ptr, align 8
  %5 = alloca i32, align 4
  %6 = alloca i32, align 4
  %7 = alloca ptr, align 8
  store ptr %0, ptr %2, align 8
  call void @llvm.lifetime.start.p0(i64 8, ptr %3) #10
  call void @llvm.lifetime.start.p0(i64 8, ptr %4) #10
  %8 = load ptr, ptr %2, align 8
  call void @InitMaterializedSRF(ptr noundef %8, i32 noundef 0)
  %9 = load ptr, ptr %2, align 8
  %10 = getelementptr inbounds nuw %struct.FunctionCallInfoBaseData, ptr %9, i32 0, i32 2
  %11 = load ptr, ptr %10, align 8
  store ptr %11, ptr %3, align 8
  %12 = call ptr @pgstat_fetch_stat_io()
  store ptr %12, ptr %4, align 8
  call void @llvm.lifetime.start.p0(i64 4, ptr %5) #10
  store i32 0, ptr %5, align 4
  br label %13

13:                                               ; preds = %36, %1
  %14 = load i32, ptr %5, align 4
  %15 = icmp slt i32 %14, 17
  br i1 %15, label %17, label %16

16:                                               ; preds = %13
  store i32 2, ptr %6, align 4
  call void @llvm.lifetime.end.p0(i64 4, ptr %5) #10
  br label %39

17:                                               ; preds = %13
  call void @llvm.lifetime.start.p0(i64 8, ptr %7) #10
  %18 = load ptr, ptr %4, align 8
  %19 = getelementptr inbounds nuw %struct.PgStat_IO, ptr %18, i32 0, i32 1
  %20 = load i32, ptr %5, align 4
  %21 = sext i32 %20 to i64
  %22 = getelementptr inbounds [17 x %struct.PgStat_BktypeIO], ptr %19, i64 0, i64 %21
  store ptr %22, ptr %7, align 8
  %23 = load i32, ptr %5, align 4
  %24 = call zeroext i1 @pgstat_tracks_io_bktype(i32 noundef %23)
  br i1 %24, label %26, label %25

25:                                               ; preds = %17
  store i32 4, ptr %6, align 4
  br label %33

26:                                               ; preds = %17
  %27 = load ptr, ptr %3, align 8
  %28 = load ptr, ptr %7, align 8
  %29 = load i32, ptr %5, align 4
  %30 = load ptr, ptr %4, align 8
  %31 = getelementptr inbounds nuw %struct.PgStat_IO, ptr %30, i32 0, i32 0
  %32 = load i64, ptr %31, align 8
  call void @pg_stat_io_build_tuples(ptr noundef %27, ptr noundef %28, i32 noundef %29, i64 noundef %32)
  store i32 0, ptr %6, align 4
  br label %33

33:                                               ; preds = %26, %25
  call void @llvm.lifetime.end.p0(i64 8, ptr %7) #10
  %34 = load i32, ptr %6, align 4
  switch i32 %34, label %40 [
    i32 0, label %35
    i32 4, label %36
  ]

35:                                               ; preds = %33
  br label %36

36:                                               ; preds = %35, %33
  %37 = load i32, ptr %5, align 4
  %38 = add i32 %37, 1
  store i32 %38, ptr %5, align 4
  br label %13, !llvm.loop !20

39:                                               ; preds = %16
  store i32 1, ptr %6, align 4
  call void @llvm.lifetime.end.p0(i64 8, ptr %4) #10
  call void @llvm.lifetime.end.p0(i64 8, ptr %3) #10
  ret i64 0

40:                                               ; preds = %33
  unreachable
}