; Function Attrs: nounwind uwtable
define dso_local noundef i64 @pg_stat_get_io(ptr noundef %0) local_unnamed_addr #0 {
  tail call void @InitMaterializedSRF(ptr noundef %0, i32 noundef 0) #9
  %2 = getelementptr inbounds nuw i8, ptr %0, i64 16
  %3 = load ptr, ptr %2, align 8
  %4 = tail call ptr @pgstat_fetch_stat_io() #9
  %5 = getelementptr inbounds nuw i8, ptr %4, i64 8
  br label %7

6:                                                ; preds = %13
  ret i64 0

7:                                                ; preds = %1, %13
  %indvars.iv = phi i64 [ 0, %1 ], [ %indvars.iv.next, %13 ]
  %8 = trunc nuw nsw i64 %indvars.iv to i32
  %9 = tail call zeroext i1 @pgstat_tracks_io_bktype(i32 noundef %8) #9
  br i1 %9, label %10, label %13

10:                                               ; preds = %7
  %11 = getelementptr inbounds nuw [17 x %struct.PgStat_BktypeIO], ptr %5, i64 0, i64 %indvars.iv
  %12 = load i64, ptr %4, align 8
  tail call fastcc void @pg_stat_io_build_tuples(ptr noundef %3, ptr noundef nonnull %11, i32 noundef %8, i64 noundef %12)
  br label %13

13:                                               ; preds = %7, %10
  %indvars.iv.next = add nuw nsw i64 %indvars.iv, 1
  %exitcond.not = icmp eq i64 %indvars.iv.next, 17
  br i1 %exitcond.not, label %6, label %7, !llvm.loop !15
}